Certificate:
    Data:
        Version: 3 (0x2)
        Serial Number: 4098 (0x1002)
        Signature Algorithm: sha256WithRSAEncryption
        Issuer: C=PT, ST=Coimbra, L=Coimbra, O=UC, OU=DEI, CN=client/emailAddress=uc2024156583@student.uc.pt
        Validity
            Not Before: Feb 18 20:07:45 2025 GMT
            Not After : Feb 18 20:07:45 2026 GMT
        Subject: C=PT, ST=Coimbra, O=UC, OU=DEI, CN=vpn-gateway/emailAddress=uc2024156583@student.uc.pt
        Subject Public Key Info:
            Public Key Algorithm: rsaEncryption
                Public-Key: (2048 bit)
                Modulus:
                    00:cb:78:e2:20:cd:74:9d:95:4b:f6:72:7a:62:6b:
                    c4:24:40:9a:48:f8:67:05:3e:b3:ae:b3:9c:c4:b9:
                    46:06:3e:24:e4:57:1c:1b:30:15:b3:ff:f4:40:9e:
                    17:d2:c1:46:fa:01:56:5c:5c:df:94:4a:69:07:0a:
                    e1:1b:1c:ec:5c:dd:6c:28:79:4e:89:20:f5:b5:52:
                    3f:22:14:25:1b:9b:9e:1c:32:c3:8a:6c:b7:1f:eb:
                    9c:88:cf:47:ff:c2:1b:f5:69:47:dd:7b:cb:5f:00:
                    cd:b7:94:9d:17:81:90:25:fc:2e:0e:20:e9:be:6f:
                    02:51:17:2f:17:aa:dd:02:09:a2:26:2b:c7:9e:3f:
                    58:54:3f:d1:cb:8e:35:30:ec:e1:35:54:7f:bc:ec:
                    a1:c5:bc:c9:ff:61:34:78:32:0a:1d:0e:4f:fb:d2:
                    c6:e9:be:7c:a4:b0:58:a3:48:b1:27:92:91:84:eb:
                    c4:fc:1b:f1:12:73:19:2a:d1:1c:7c:58:1c:aa:1b:
                    b6:59:2f:6a:02:5c:71:ef:63:e9:40:21:5b:b8:85:
                    0d:80:dc:ee:e6:66:0b:2e:db:83:34:83:ee:d6:67:
                    b6:30:3b:6e:96:6a:f2:8f:04:39:e3:24:52:e3:3b:
                    59:56:5b:3b:54:d8:f8:45:ee:51:cf:b4:ce:a0:51:
                    56:29
                Exponent: 65537 (0x10001)
        X509v3 extensions:
            X509v3 Subject Key Identifier: 
                94:C5:2E:82:EA:8F:10:D1:33:3A:77:77:54:FF:56:D3:FD:F1:C0:BE
            X509v3 Authority Key Identifier: 
                0E:10:02:B6:9D:F7:FA:9E:41:4B:40:6D:FE:56:F5:2E:DC:B2:89:74
    Signature Algorithm: sha256WithRSAEncryption
    Signature Value:
        4f:11:8a:b5:9d:f6:fd:4a:74:6a:b1:8f:19:1c:69:10:8c:5b:
        d9:73:d0:4f:d1:6c:5b:f8:77:53:bc:e8:89:e2:41:70:63:0d:
        07:95:e4:67:e0:44:10:12:17:7d:0d:06:e5:45:97:19:cf:07:
        25:96:e9:d4:47:49:39:7b:f9:54:b7:88:21:fb:4d:c4:b1:06:
        c5:bf:d4:04:5b:54:5e:3b:9b:6a:66:d2:89:01:8f:ee:f2:10:
        15:19:f4:be:93:9e:7b:18:f2:ed:cb:a5:66:68:56:5f:a4:97:
        de:18:bd:73:0b:cf:2f:9e:65:1b:54:bc:35:96:5e:6f:5a:55:
        80:16:09:b8:cb:16:0d:4b:91:68:13:2d:27:7b:62:e7:d0:62:
        ef:0d:ae:ab:91:d8:b6:3b:db:01:44:6b:93:a1:c4:5a:b0:a5:
        01:53:52:b5:fe:83:0a:0e:38:a0:d0:d2:51:c9:e0:5e:45:32:
        79:ff:0f:46:94:32:8b:aa:d1:10:f4:a1:6f:e6:da:d1:6c:95:
        44:72:87:4d:d0:81:f0:3d:b4:8f:1b:3a:82:e7:ee:70:47:ab:
        4d:45:56:5f:58:f1:e4:ec:cb:00:a8:65:27:8b:8c:95:9c:26:
        19:88:d0:8b:f8:8e:71:b7:aa:24:5b:1f:61:eb:5f:84:49:97:
        e0:6f:b9:dc
-----BEGIN CERTIFICATE-----
MIIDwjCCAqqgAwIBAgICEAIwDQYJKoZIhvcNAQELBQAwgYgxCzAJBgNVBAYTAlBU
MRAwDgYDVQQIDAdDb2ltYnJhMRAwDgYDVQQHDAdDb2ltYnJhMQswCQYDVQQKDAJV
QzEMMAoGA1UECwwDREVJMQ8wDQYDVQQDDAZjbGllbnQxKTAnBgkqhkiG9w0BCQEW
GnVjMjAyNDE1NjU4M0BzdHVkZW50LnVjLnB0MB4XDTI1MDIxODIwMDc0NVoXDTI2
MDIxODIwMDc0NVowezELMAkGA1UEBhMCUFQxEDAOBgNVBAgMB0NvaW1icmExCzAJ
BgNVBAoMAlVDMQwwCgYDVQQLDANERUkxFDASBgNVBAMMC3Zwbi1nYXRld2F5MSkw
JwYJKoZIhvcNAQkBFhp1YzIwMjQxNTY1ODNAc3R1ZGVudC51Yy5wdDCCASIwDQYJ
KoZIhvcNAQEBBQADggEPADCCAQoCggEBAMt44iDNdJ2VS/ZyemJrxCRAmkj4ZwU+
s66znMS5RgY+JORXHBswFbP/9ECeF9LBRvoBVlxc35RKaQcK4Rsc7FzdbCh5Tokg
9bVSPyIUJRubnhwyw4pstx/rnIjPR//CG/VpR917y18AzbeUnReBkCX8Lg4g6b5v
AlEXLxeq3QIJoiYrx54/WFQ/0cuONTDs4TVUf7zsocW8yf9hNHgyCh0OT/vSxum+
fKSwWKNIsSeSkYTrxPwb8RJzGSrRHHxYHKobtlkvagJcce9j6UAhW7iFDYDc7uZm
Cy7bgzSD7tZntjA7bpZq8o8EOeMkUuM7WVZbO1TY+EXuUc+0zqBRVikCAwEAAaNC
MEAwHQYDVR0OBBYEFJTFLoLqjxDRMzp3d1T/VtP98cC+MB8GA1UdIwQYMBaAFA4Q
Arad9/qeQUtAbf5W9S7csol0MA0GCSqGSIb3DQEBCwUAA4IBAQBPEYq1nfb9SnRq
sY8ZHGkQjFvZc9BP0Wxb+HdTvOiJ4kFwYw0HleRn4EQQEhd9DQblRZcZzwcllunU
R0k5e/lUt4gh+03EsQbFv9QEW1ReO5tqZtKJAY/u8hAVGfS+k557GPLty6VmaFZf
pJfeGL1zC88vnmUbVLw1ll5vWlWAFgm4yxYNS5FoEy0ne2Ln0GLvDa6rkdi2O9sB
RGuTocRasKUBU1K1/oMKDjig0NJRyeBeRTJ5/w9GlDKLqtEQ9KFv5trRbJVEcodN
0IHwPbSPGzqC5+5wR6tNRVZfWPHk7MsAqGUni4yVnCYZiNCL+I5xt6okWx9h61+E
SZfgb7nc
-----END CERTIFICATE-----
