Certificate:
    Data:
        Version: 3 (0x2)
        Serial Number: 4096 (0x1000)
        Signature Algorithm: sha256WithRSAEncryption
        Issuer: C=PT, ST=Coimbra, L=Coimbra, O=UC, OU=DEI, CN=client/emailAddress=uc2024156583@student.uc.pt
        Validity
            Not Before: Feb 18 19:56:24 2025 GMT
            Not After : Feb 18 19:56:24 2026 GMT
        Subject: C=PT, ST=Coimbra, O=UC, OU=DEI, CN=client/emailAddress=uc2024232210@student.uc.pt
        Subject Public Key Info:
            Public Key Algorithm: rsaEncryption
                Public-Key: (2048 bit)
                Modulus:
                    00:b4:3f:d2:49:c9:b6:96:94:6b:27:aa:9a:ff:e3:
                    a5:32:65:b7:39:fa:38:52:f0:81:f5:d1:2a:f5:fb:
                    8f:78:36:9b:72:06:df:f0:cb:1e:1f:4e:d7:fc:c7:
                    48:c8:d1:c6:a7:fb:4d:b5:65:5f:51:df:c7:17:04:
                    ec:f7:b6:e0:5f:e1:67:b7:5f:2a:df:77:e2:ed:c1:
                    66:13:4f:29:06:d1:37:97:18:83:22:df:6c:2b:eb:
                    75:5a:7a:a8:18:69:40:39:a7:2b:70:b8:a1:8d:ca:
                    e0:57:29:0b:9c:82:aa:a2:cf:76:0b:45:1e:1d:b5:
                    26:97:91:0b:34:0a:65:23:9a:cc:05:f1:fe:2f:32:
                    58:27:bd:81:33:f4:45:b1:f9:68:6b:9e:16:22:1f:
                    47:e8:0d:b5:65:0a:a4:03:43:05:ab:05:81:29:11:
                    a8:1c:2f:44:95:45:98:cd:38:3a:58:f4:0a:08:92:
                    c3:19:9a:bd:28:8a:c0:94:8e:fb:87:77:e6:cb:0b:
                    ba:0a:fb:1f:75:af:c4:e7:eb:13:b7:bd:c2:43:bc:
                    5b:b7:76:4f:cc:b1:3b:2f:21:ec:6e:45:93:12:dc:
                    99:55:1c:47:8e:41:f1:37:30:48:87:cb:86:db:17:
                    26:cf:f1:50:02:ee:b7:1f:0b:68:7b:84:f7:cc:5d:
                    ce:e5
                Exponent: 65537 (0x10001)
        X509v3 extensions:
            X509v3 Basic Constraints: 
                CA:FALSE
            X509v3 Subject Key Identifier: 
                39:84:17:E5:4A:87:5B:05:32:08:FE:EC:18:6F:66:DF:12:8C:35:39
            X509v3 Authority Key Identifier: 
                0E:10:02:B6:9D:F7:FA:9E:41:4B:40:6D:FE:56:F5:2E:DC:B2:89:74
    Signature Algorithm: sha256WithRSAEncryption
    Signature Value:
        6c:e7:e0:1a:79:48:59:d8:5e:e7:ad:c8:72:46:f2:00:6b:20:
        bc:dd:c7:a7:01:a0:51:21:bc:3f:f7:e0:24:14:5d:77:1c:1e:
        7a:31:29:25:4f:04:3a:20:a5:47:8a:05:66:c9:3b:0d:b8:06:
        86:b1:9c:1e:80:df:f6:20:a5:7c:46:19:44:45:09:13:14:6a:
        23:af:a4:69:ff:42:fc:49:c1:0d:85:a2:e3:39:7f:19:8f:14:
        18:8c:73:5d:c8:b8:f1:d1:5a:7d:98:7d:41:25:e8:e0:c0:1a:
        1d:c7:c1:0e:6f:5f:6f:69:d5:bd:fc:14:19:3a:29:92:5b:cb:
        3a:6c:5a:03:ac:1e:6a:be:fc:30:0a:ca:3a:92:1b:94:38:1c:
        d8:e8:07:19:73:47:c6:21:0a:a7:72:6a:48:7d:12:2c:6a:d6:
        8a:77:92:3f:5d:06:b7:ae:93:02:67:b3:00:d9:55:26:3a:1b:
        43:1b:c8:ce:cb:f5:7d:9d:7a:5c:46:79:22:0e:37:cc:8d:c1:
        99:ab:39:ec:6e:d9:34:24:10:3f:5d:9e:8f:c0:4d:77:c3:69:
        a6:fa:7e:db:e9:38:9f:7d:ea:88:34:82:3e:0c:c1:65:f2:2e:
        ca:59:4a:c0:81:d2:5e:6a:2b:11:79:b8:6c:99:9b:2b:b6:f3:
        44:6b:a9:8f
-----BEGIN CERTIFICATE-----
MIIDyDCCArCgAwIBAgICEAAwDQYJKoZIhvcNAQELBQAwgYgxCzAJBgNVBAYTAlBU
MRAwDgYDVQQIDAdDb2ltYnJhMRAwDgYDVQQHDAdDb2ltYnJhMQswCQYDVQQKDAJV
QzEMMAoGA1UECwwDREVJMQ8wDQYDVQQDDAZjbGllbnQxKTAnBgkqhkiG9w0BCQEW
GnVjMjAyNDE1NjU4M0BzdHVkZW50LnVjLnB0MB4XDTI1MDIxODE5NTYyNFoXDTI2
MDIxODE5NTYyNFowdjELMAkGA1UEBhMCUFQxEDAOBgNVBAgMB0NvaW1icmExCzAJ
BgNVBAoMAlVDMQwwCgYDVQQLDANERUkxDzANBgNVBAMMBmNsaWVudDEpMCcGCSqG
SIb3DQEJARYadWMyMDI0MjMyMjEwQHN0dWRlbnQudWMucHQwggEiMA0GCSqGSIb3
DQEBAQUAA4IBDwAwggEKAoIBAQC0P9JJybaWlGsnqpr/46UyZbc5+jhS8IH10Sr1
+494NptyBt/wyx4fTtf8x0jI0can+021ZV9R38cXBOz3tuBf4We3Xyrfd+LtwWYT
TykG0TeXGIMi32wr63VaeqgYaUA5pytwuKGNyuBXKQucgqqiz3YLRR4dtSaXkQs0
CmUjmswF8f4vMlgnvYEz9EWx+WhrnhYiH0foDbVlCqQDQwWrBYEpEagcL0SVRZjN
ODpY9AoIksMZmr0oisCUjvuHd+bLC7oK+x91r8Tn6xO3vcJDvFu3dk/MsTsvIexu
RZMS3JlVHEeOQfE3MEiHy4bbFybP8VAC7rcfC2h7hPfMXc7lAgMBAAGjTTBLMAkG
A1UdEwQCMAAwHQYDVR0OBBYEFDmEF+VKh1sFMgj+7BhvZt8SjDU5MB8GA1UdIwQY
MBaAFA4QArad9/qeQUtAbf5W9S7csol0MA0GCSqGSIb3DQEBCwUAA4IBAQBs5+Aa
eUhZ2F7nrchyRvIAayC83cenAaBRIbw/9+AkFF13HB56MSklTwQ6IKVHigVmyTsN
uAaGsZwegN/2IKV8RhlERQkTFGojr6Rp/0L8ScENhaLjOX8ZjxQYjHNdyLjx0Vp9
mH1BJejgwBodx8EOb19vadW9/BQZOimSW8s6bFoDrB5qvvwwCso6khuUOBzY6AcZ
c0fGIQqncmpIfRIsataKd5I/XQa3rpMCZ7MA2VUmOhtDG8jOy/V9nXpcRnkiDjfM
jcGZqznsbtk0JBA/XZ6PwE13w2mm+n7b6TiffeqINII+DMFl8i7KWUrAgdJeaisR
ebhsmZsrtvNEa6mP
-----END CERTIFICATE-----
